target datalayout = "e-m:e-p270:32:32-p271:32:32-p272:64:64-i64:64-i128:128-f80:128-n8:16:32:64-S128"
target triple = "x86_64-pc-linux-gnu"

; Function Attrs: nounwind uwtable
define internal void @pred4x4_top_dc_12_c(ptr noundef %0, ptr noundef %1, i64 noundef %2) #1 {
  %4 = alloca ptr, align 8
  %5 = alloca ptr, align 8
  %6 = alloca i64, align 8
  %7 = alloca ptr, align 8
  %8 = alloca i32, align 4
  %9 = alloca i32, align 4
  %10 = alloca i64, align 8
  store ptr %0, ptr %4, align 8, !tbaa !12
  store ptr %1, ptr %5, align 8, !tbaa !12
  store i64 %2, ptr %6, align 8, !tbaa !14
  call void @llvm.lifetime.start.p0(i64 8, ptr %7) #9
  %11 = load ptr, ptr %4, align 8, !tbaa !12
  store ptr %11, ptr %7, align 8, !tbaa !16
  call void @llvm.lifetime.start.p0(i64 4, ptr %8) #9
  %12 = load i64, ptr %6, align 8, !tbaa !14
  %13 = ashr i64 %12, 1
  %14 = trunc i64 %13 to i32
  store i32 %14, ptr %8, align 4, !tbaa !9
  call void @llvm.lifetime.start.p0(i64 4, ptr %9) #9
  %15 = load ptr, ptr %7, align 8, !tbaa !16
  %16 = load i32, ptr %8, align 4, !tbaa !9
  %17 = sub nsw i32 0, %16
  %18 = sext i32 %17 to i64
  %19 = getelementptr inbounds i16, ptr %15, i64 %18
  %20 = load i16, ptr %19, align 2, !tbaa !19
  %21 = zext i16 %20 to i32
  %22 = load ptr, ptr %7, align 8, !tbaa !16
  %23 = load i32, ptr %8, align 4, !tbaa !9
  %24 = sub nsw i32 1, %23
  %25 = sext i32 %24 to i64
  %26 = getelementptr inbounds i16, ptr %22, i64 %25
  %27 = load i16, ptr %26, align 2, !tbaa !19
  %28 = zext i16 %27 to i32
  %29 = add nsw i32 %21, %28
  %30 = load ptr, ptr %7, align 8, !tbaa !16
  %31 = load i32, ptr %8, align 4, !tbaa !9
  %32 = sub nsw i32 2, %31
  %33 = sext i32 %32 to i64
  %34 = getelementptr inbounds i16, ptr %30, i64 %33
  %35 = load i16, ptr %34, align 2, !tbaa !19
  %36 = zext i16 %35 to i32
  %37 = add nsw i32 %29, %36
  %38 = load ptr, ptr %7, align 8, !tbaa !16
  %39 = load i32, ptr %8, align 4, !tbaa !9
  %40 = sub nsw i32 3, %39
  %41 = sext i32 %40 to i64
  %42 = getelementptr inbounds i16, ptr %38, i64 %41
  %43 = load i16, ptr %42, align 2, !tbaa !19
  %44 = zext i16 %43 to i32
  %45 = add nsw i32 %37, %44
  %46 = add nsw i32 %45, 2
  %47 = ashr i32 %46, 2
  store i32 %47, ptr %9, align 4, !tbaa !9
  call void @llvm.lifetime.start.p0(i64 8, ptr %10) #9
  %48 = load i32, ptr %9, align 4, !tbaa !9
  %49 = sext i32 %48 to i64
  %50 = mul i64 %49, 281479271743489
  store i64 %50, ptr %10, align 8, !tbaa !14
  %51 = load i64, ptr %10, align 8, !tbaa !14
  %52 = load ptr, ptr %7, align 8, !tbaa !16
  %53 = load i32, ptr %8, align 4, !tbaa !9
  %54 = mul nsw i32 0, %53
  %55 = sext i32 %54 to i64
  %56 = getelementptr inbounds i16, ptr %52, i64 %55
  store i64 %51, ptr %56, align 8, !tbaa !18
  %57 = load i64, ptr %10, align 8, !tbaa !14
  %58 = load ptr, ptr %7, align 8, !tbaa !16
  %59 = load i32, ptr %8, align 4, !tbaa !9
  %60 = mul nsw i32 1, %59
  %61 = sext i32 %60 to i64
  %62 = getelementptr inbounds i16, ptr %58, i64 %61
  store i64 %57, ptr %62, align 8, !tbaa !18
  %63 = load i64, ptr %10, align 8, !tbaa !14
  %64 = load ptr, ptr %7, align 8, !tbaa !16
  %65 = load i32, ptr %8, align 4, !tbaa !9
  %66 = mul nsw i32 2, %65
  %67 = sext i32 %66 to i64
  %68 = getelementptr inbounds i16, ptr %64, i64 %67
  store i64 %63, ptr %68, align 8, !tbaa !18
  %69 = load i64, ptr %10, align 8, !tbaa !14
  %70 = load ptr, ptr %7, align 8, !tbaa !16
  %71 = load i32, ptr %8, align 4, !tbaa !9
  %72 = mul nsw i32 3, %71
  %73 = sext i32 %72 to i64
  %74 = getelementptr inbounds i16, ptr %70, i64 %73
  store i64 %69, ptr %74, align 8, !tbaa !18
  call void @llvm.lifetime.end.p0(i64 8, ptr %10) #9
  call void @llvm.lifetime.end.p0(i64 4, ptr %9) #9
  call void @llvm.lifetime.end.p0(i64 4, ptr %8) #9
  call void @llvm.lifetime.end.p0(i64 8, ptr %7) #9
  ret void
}