; Function Attrs: mustprogress nofree norecurse nosync nounwind willreturn memory(argmem: readwrite) uwtable
define internal void @pred4x4_top_dc_12_c(ptr noundef captures(none) %0, ptr readnone captures(none) %1, i64 noundef %2) #1 {
  %4 = lshr i64 %2, 1
  %5 = trunc i64 %4 to i32
  %.neg = mul i64 %4, -4294967296
  %6 = ashr exact i64 %.neg, 31
  %7 = getelementptr inbounds i8, ptr %0, i64 %6
  %8 = load i16, ptr %7, align 2, !tbaa !9
  %9 = zext i16 %8 to i64
  %10 = shl i64 %4, 32
  %sext = sub i64 4294967296, %10
  %11 = ashr exact i64 %sext, 31
  %12 = getelementptr inbounds i8, ptr %0, i64 %11
  %13 = load i16, ptr %12, align 2, !tbaa !9
  %14 = zext i16 %13 to i64
  %sext22 = sub i64 8589934592, %10
  %15 = ashr exact i64 %sext22, 31
  %16 = getelementptr inbounds i8, ptr %0, i64 %15
  %17 = load i16, ptr %16, align 2, !tbaa !9
  %18 = zext i16 %17 to i64
  %sext23 = sub i64 12884901888, %10
  %19 = ashr exact i64 %sext23, 31
  %20 = getelementptr inbounds i8, ptr %0, i64 %19
  %21 = load i16, ptr %20, align 2, !tbaa !9
  %22 = zext i16 %21 to i64
  %23 = add nuw nsw i64 %9, 2
  %24 = add nuw nsw i64 %23, %14
  %25 = add nuw nsw i64 %24, %18
  %26 = add nuw nsw i64 %25, %22
  %27 = lshr i64 %26, 2
  %28 = mul nuw i64 %27, 281479271743489
  store i64 %28, ptr %0, align 8, !tbaa !8
  %29 = ashr exact i64 %10, 31
  %30 = getelementptr inbounds i8, ptr %0, i64 %29
  store i64 %28, ptr %30, align 8, !tbaa !8
  %31 = shl nsw i32 %5, 1
  %32 = sext i32 %31 to i64
  %33 = getelementptr inbounds i16, ptr %0, i64 %32
  store i64 %28, ptr %33, align 8, !tbaa !8
  %sext25 = mul i64 %4, 12884901888
  %34 = ashr exact i64 %sext25, 31
  %35 = getelementptr inbounds i8, ptr %0, i64 %34
  store i64 %28, ptr %35, align 8, !tbaa !8
  ret void
}